target datalayout = "e-m:e-p270:32:32-p271:32:32-p272:64:64-i64:64-i128:128-f80:128-n8:16:32:64-S128"
target triple = "x86_64-pc-linux-gnu"

%"class.duckdb_re2::Prog::Inst" = type { i32, %union.anon }
%union.anon = type { i32 }

; Function Attrs: mustprogress nounwind uwtable
define linkonce_odr hidden noundef i32 @_ZN10duckdb_re24Prog4Inst4lastEv(ptr noundef nonnull align 4 dereferenceable(8) %0) #1 comdat align 2 {
  %2 = alloca ptr, align 8
  store ptr %0, ptr %2, align 8, !tbaa !3
  %3 = load ptr, ptr %2, align 8
  %4 = getelementptr inbounds nuw %"class.duckdb_re2::Prog::Inst", ptr %3, i32 0, i32 0
  %5 = load i32, ptr %4, align 4, !tbaa !13
  %6 = lshr i32 %5, 3
  %7 = and i32 %6, 1
  ret i32 %7
}

; Function Attrs: mustprogress uwtable
define linkonce_odr hidden void @_ZN10duckdb_re24Prog4Inst14set_out_opcodeEiNS_6InstOpE(ptr noundef nonnull align 4 dereferenceable(8) %0, i32 noundef %1, i32 noundef %2) #0 comdat align 2 {
  %4 = alloca ptr, align 8
  %5 = alloca i32, align 4
  %6 = alloca i32, align 4
  store ptr %0, ptr %4, align 8, !tbaa !3
  store i32 %1, ptr %5, align 4, !tbaa !8
  store i32 %2, ptr %6, align 4, !tbaa !11
  %7 = load ptr, ptr %4, align 8
  %8 = load i32, ptr %5, align 4, !tbaa !8
  %9 = shl i32 %8, 4
  %10 = call noundef i32 @_ZN10duckdb_re24Prog4Inst4lastEv(ptr noundef nonnull align 4 dereferenceable(8) %7)
  %11 = shl i32 %10, 3
  %12 = or i32 %9, %11
  %13 = load i32, ptr %6, align 4, !tbaa !11
  %14 = or i32 %12, %13
  %15 = getelementptr inbounds nuw %"class.duckdb_re2::Prog::Inst", ptr %7, i32 0, i32 0
  store i32 %14, ptr %15, align 4, !tbaa !13
  ret void
}

; Function Attrs: mustprogress uwtable
define hidden void @_ZN10duckdb_re24Prog4Inst11InitCaptureEij(ptr noundef nonnull align 4 dereferenceable(8) %0, i32 noundef %1, i32 noundef %2) #0 align 2 {
  %4 = alloca ptr, align 8
  %5 = alloca i32, align 4
  %6 = alloca i32, align 4
  store ptr %0, ptr %4, align 8, !tbaa !3
  store i32 %1, ptr %5, align 4, !tbaa !8
  store i32 %2, ptr %6, align 4, !tbaa !8
  %7 = load ptr, ptr %4, align 8
  %8 = load i32, ptr %6, align 4, !tbaa !8
  call void @_ZN10duckdb_re24Prog4Inst14set_out_opcodeEiNS_6InstOpE(ptr noundef nonnull align 4 dereferenceable(8) %7, i32 noundef %8, i32 noundef 3)
  %9 = load i32, ptr %5, align 4, !tbaa !8
  %10 = getelementptr inbounds nuw %"class.duckdb_re2::Prog::Inst", ptr %7, i32 0, i32 1
  store i32 %9, ptr %10, align 4, !tbaa !10
  ret void
}